; Function Attrs: mustprogress nofree norecurse nosync nounwind memory(read, argmem: readwrite, inaccessiblemem: none) uwtable
define hidden void @_ZN10HeapShared16get_pointer_infoEP7oopDescRbS2_(ptr noundef %0, ptr nocapture noundef nonnull writeonly align 1 dereferenceable(1) %1, ptr nocapture noundef nonnull writeonly align 1 dereferenceable(1) %2) local_unnamed_addr #9 align 2 {
  %4 = load ptr, ptr @_ZN10HeapShared22_archived_object_cacheE, align 8
  %5 = ptrtoint ptr %0 to i64
  %6 = trunc i64 %5 to i32
  %7 = lshr i32 %6, 3
  %8 = xor i32 %7, %6
  %9 = load i32, ptr %4, align 8
  %10 = urem i32 %8, %9
  %11 = getelementptr inbounds i8, ptr %4, i64 8
  %12 = load ptr, ptr %11, align 8
  %13 = zext i32 %10 to i64
  %14 = getelementptr inbounds ptr, ptr %12, i64 %13
  %15 = load ptr, ptr %14, align 8
  %.not11.i.i.i = icmp eq ptr %15, null
  br i1 %.not11.i.i.i, label %_ZNK21ResourceHashtableBaseI34ResizeableResourceHashtableStorageIP7oopDescN10HeapShared13CachedOopInfoELN6AnyObj15allocation_typeE2EL8MEMFLAGS13EES2_S4_LS6_2ELS7_13EXadL_ZNS3_8oop_hashERKS2_EEXadL_Z16primitive_equalsIS2_EbRKT_SE_EEE3getESA_.exit, label %.lr.ph.i.i.i

.lr.ph.i.i.i:                                     ; preds = %3, %23
  %16 = phi ptr [ %25, %23 ], [ %15, %3 ]
  %17 = load i32, ptr %16, align 8
  %18 = icmp eq i32 %17, %8
  br i1 %18, label %19, label %23

19:                                               ; preds = %.lr.ph.i.i.i
  %20 = getelementptr inbounds i8, ptr %16, i64 8
  %21 = load ptr, ptr %20, align 8
  %22 = icmp eq ptr %21, %0
  br i1 %22, label %_ZNK21ResourceHashtableBaseI34ResizeableResourceHashtableStorageIP7oopDescN10HeapShared13CachedOopInfoELN6AnyObj15allocation_typeE2EL8MEMFLAGS13EES2_S4_LS6_2ELS7_13EXadL_ZNS3_8oop_hashERKS2_EEXadL_Z16primitive_equalsIS2_EbRKT_SE_EEE3getESA_.exit, label %23

23:                                               ; preds = %19, %.lr.ph.i.i.i
  %24 = getelementptr inbounds i8, ptr %16, i64 40
  %25 = load ptr, ptr %24, align 8
  %.not.i.i.i = icmp eq ptr %25, null
  br i1 %.not.i.i.i, label %_ZNK21ResourceHashtableBaseI34ResizeableResourceHashtableStorageIP7oopDescN10HeapShared13CachedOopInfoELN6AnyObj15allocation_typeE2EL8MEMFLAGS13EES2_S4_LS6_2ELS7_13EXadL_ZNS3_8oop_hashERKS2_EEXadL_Z16primitive_equalsIS2_EbRKT_SE_EEE3getESA_.exit, label %.lr.ph.i.i.i, !llvm.loop !9

_ZNK21ResourceHashtableBaseI34ResizeableResourceHashtableStorageIP7oopDescN10HeapShared13CachedOopInfoELN6AnyObj15allocation_typeE2EL8MEMFLAGS13EES2_S4_LS6_2ELS7_13EXadL_ZNS3_8oop_hashERKS2_EEXadL_Z16primitive_equalsIS2_EbRKT_SE_EEE3getESA_.exit: ; preds = %19, %23, %3
  %26 = phi ptr [ null, %3 ], [ null, %23 ], [ %16, %19 ]
  %.not.i = icmp eq ptr %26, null
  %27 = getelementptr inbounds i8, ptr %26, i64 16
  %.0.i = select i1 %.not.i, ptr null, ptr %27
  %28 = getelementptr inbounds i8, ptr %.0.i, i64 16
  %29 = load i8, ptr %28, align 8
  %30 = and i8 %29, 1
  store i8 %30, ptr %1, align 1
  %31 = getelementptr inbounds i8, ptr %.0.i, i64 17
  %32 = load i8, ptr %31, align 1
  %33 = and i8 %32, 1
  store i8 %33, ptr %2, align 1
  ret void
}